target datalayout = "e-m:e-p270:32:32-p271:32:32-p272:64:64-i64:64-i128:128-f80:128-n8:16:32:64-S128"
target triple = "x86_64-pc-linux-gnu"

%"class.google::protobuf::MessageLite" = type { ptr, %"class.google::protobuf::internal::InternalMetadata" }
%"class.google::protobuf::internal::InternalMetadata" = type { ptr }
%"class.google::protobuf::internal::CachedSize" = type { %"struct.std::atomic.47" }
%"struct.std::atomic.47" = type { %"struct.std::__atomic_base.48" }
%"struct.std::__atomic_base.48" = type { i32 }
%"class.google::protobuf::internal::HasBits" = type { [1 x i32] }
%"struct.google::protobuf::internal::ArenaStringPtr" = type { ptr }
%"class.i18n::phonenumbers::PhoneNumber" = type { %"class.google::protobuf::MessageLite", %"class.google::protobuf::internal::HasBits", %"class.google::protobuf::internal::CachedSize", %"struct.google::protobuf::internal::ArenaStringPtr", %"struct.google::protobuf::internal::ArenaStringPtr", %"struct.google::protobuf::internal::ArenaStringPtr", i64, i32, i8, i32, i32 }

; Function Attrs: mustprogress nounwind uwtable
define linkonce_odr dso_local void @_ZN4i18n12phonenumbers11PhoneNumber37_internal_set_number_of_leading_zerosEi(ptr noundef nonnull align 8 dereferenceable(72) %0, i32 noundef %1) #5 comdat align 2 {
  %3 = alloca ptr, align 8
  %4 = alloca i32, align 4
  %5 = alloca ptr, align 8
  %6 = alloca i32, align 4
  store ptr %0, ptr %5, align 8
  store i32 %1, ptr %6, align 4
  %7 = load ptr, ptr %5, align 8
  %8 = getelementptr inbounds %"class.i18n::phonenumbers::PhoneNumber", ptr %7, i32 0, i32 1
  store ptr %8, ptr %3, align 8
  store i32 0, ptr %4, align 4
  %9 = load ptr, ptr %3, align 8
  %10 = load i32, ptr %4, align 4
  %11 = sext i32 %10 to i64
  %12 = getelementptr inbounds [1 x i32], ptr %9, i64 0, i64 %11
  %13 = load i32, ptr %12, align 4
  %14 = or i32 %13, 128
  store i32 %14, ptr %12, align 4
  %15 = load i32, ptr %6, align 4
  %16 = getelementptr inbounds %"class.i18n::phonenumbers::PhoneNumber", ptr %7, i32 0, i32 10
  store i32 %15, ptr %16, align 4
  ret void
}

; Function Attrs: mustprogress nounwind uwtable
define linkonce_odr dso_local void @_ZN4i18n12phonenumbers11PhoneNumber34_internal_set_italian_leading_zeroEb(ptr noundef nonnull align 8 dereferenceable(72) %0, i1 noundef zeroext %1) #5 comdat align 2 {
  %3 = alloca ptr, align 8
  %4 = alloca i32, align 4
  %5 = alloca ptr, align 8
  %6 = alloca i8, align 1
  store ptr %0, ptr %5, align 8
  %7 = zext i1 %1 to i8
  store i8 %7, ptr %6, align 1
  %8 = load ptr, ptr %5, align 8
  %9 = getelementptr inbounds %"class.i18n::phonenumbers::PhoneNumber", ptr %8, i32 0, i32 1
  store ptr %9, ptr %3, align 8
  store i32 0, ptr %4, align 4
  %10 = load ptr, ptr %3, align 8
  %11 = load i32, ptr %4, align 4
  %12 = sext i32 %11 to i64
  %13 = getelementptr inbounds [1 x i32], ptr %10, i64 0, i64 %12
  %14 = load i32, ptr %13, align 4
  %15 = or i32 %14, 32
  store i32 %15, ptr %13, align 4
  %16 = load i8, ptr %6, align 1
  %17 = trunc i8 %16 to i1
  %18 = getelementptr inbounds %"class.i18n::phonenumbers::PhoneNumber", ptr %8, i32 0, i32 8
  %19 = zext i1 %17 to i8
  store i8 %19, ptr %18, align 4
  ret void
}

; Function Attrs: mustprogress uwtable
define linkonce_odr dso_local void @_ZN4i18n12phonenumbers11PhoneNumber27set_number_of_leading_zerosEi(ptr noundef nonnull align 8 dereferenceable(72) %0, i32 noundef %1) #4 comdat align 2 {
  %3 = alloca ptr, align 8
  %4 = alloca i32, align 4
  store ptr %0, ptr %3, align 8
  store i32 %1, ptr %4, align 4
  %5 = load ptr, ptr %3, align 8
  %6 = load i32, ptr %4, align 4
  call void @_ZN4i18n12phonenumbers11PhoneNumber37_internal_set_number_of_leading_zerosEi(ptr noundef nonnull align 8 dereferenceable(72) %5, i32 noundef %6)
  ret void
}

; Function Attrs: mustprogress uwtable
define linkonce_odr dso_local void @_ZN4i18n12phonenumbers11PhoneNumber24set_italian_leading_zeroEb(ptr noundef nonnull align 8 dereferenceable(72) %0, i1 noundef zeroext %1) #4 comdat align 2 {
  %3 = alloca ptr, align 8
  %4 = alloca i8, align 1
  store ptr %0, ptr %3, align 8
  %5 = zext i1 %1 to i8
  store i8 %5, ptr %4, align 1
  %6 = load ptr, ptr %3, align 8
  %7 = load i8, ptr %4, align 1
  %8 = trunc i8 %7 to i1
  call void @_ZN4i18n12phonenumbers11PhoneNumber34_internal_set_italian_leading_zeroEb(ptr noundef nonnull align 8 dereferenceable(72) %6, i1 noundef zeroext %8)
  ret void
}

; Function Attrs: mustprogress uwtable
define dso_local void @_ZNK4i18n12phonenumbers15PhoneNumberUtil36SetItalianLeadingZerosForPhoneNumberERKNSt7__cxx1112basic_stringIcSt11char_traitsIcESaIcEEEPNS0_11PhoneNumberE(ptr noundef nonnull align 8 dereferenceable(64) %0, ptr noundef nonnull align 8 dereferenceable(32) %1, ptr noundef %2) #4 align 2 {
  %4 = alloca ptr, align 8
  %5 = alloca ptr, align 8
  %6 = alloca ptr, align 8
  %7 = alloca i64, align 8
  store ptr %0, ptr %4, align 8
  store ptr %1, ptr %5, align 8
  store ptr %2, ptr %6, align 8
  %8 = load ptr, ptr %5, align 8
  %9 = call noundef i64 @_ZNKSt7__cxx1112basic_stringIcSt11char_traitsIcESaIcEE6lengthEv(ptr noundef nonnull align 8 dereferenceable(32) %8) #3
  %10 = icmp ugt i64 %9, 1
  br i1 %10, label %11, label %45

11:                                               ; preds = %3
  %12 = load ptr, ptr %5, align 8
  %13 = call noundef nonnull align 1 dereferenceable(1) ptr @_ZNKSt7__cxx1112basic_stringIcSt11char_traitsIcESaIcEEixEm(ptr noundef nonnull align 8 dereferenceable(32) %12, i64 noundef 0) #3
  %14 = load i8, ptr %13, align 1
  %15 = sext i8 %14 to i32
  %16 = icmp eq i32 %15, 48
  br i1 %16, label %17, label %45

17:                                               ; preds = %11
  %18 = load ptr, ptr %6, align 8
  call void @_ZN4i18n12phonenumbers11PhoneNumber24set_italian_leading_zeroEb(ptr noundef nonnull align 8 dereferenceable(72) %18, i1 noundef zeroext true)
  store i64 1, ptr %7, align 8
  br label %19

19:                                               ; preds = %34, %17
  %20 = load i64, ptr %7, align 8
  %21 = load ptr, ptr %5, align 8
  %22 = call noundef i64 @_ZNKSt7__cxx1112basic_stringIcSt11char_traitsIcESaIcEE6lengthEv(ptr noundef nonnull align 8 dereferenceable(32) %21) #3
  %23 = sub i64 %22, 1
  %24 = icmp ult i64 %20, %23
  br i1 %24, label %25, label %32

25:                                               ; preds = %19
  %26 = load ptr, ptr %5, align 8
  %27 = load i64, ptr %7, align 8
  %28 = call noundef nonnull align 1 dereferenceable(1) ptr @_ZNKSt7__cxx1112basic_stringIcSt11char_traitsIcESaIcEEixEm(ptr noundef nonnull align 8 dereferenceable(32) %26, i64 noundef %27) #3
  %29 = load i8, ptr %28, align 1
  %30 = sext i8 %29 to i32
  %31 = icmp eq i32 %30, 48
  br label %32

32:                                               ; preds = %25, %19
  %33 = phi i1 [ false, %19 ], [ %31, %25 ]
  br i1 %33, label %34, label %37

34:                                               ; preds = %32
  %35 = load i64, ptr %7, align 8
  %36 = add i64 %35, 1
  store i64 %36, ptr %7, align 8
  br label %19, !llvm.loop !22

37:                                               ; preds = %32
  %38 = load i64, ptr %7, align 8
  %39 = icmp ne i64 %38, 1
  br i1 %39, label %40, label %44

40:                                               ; preds = %37
  %41 = load ptr, ptr %6, align 8
  %42 = load i64, ptr %7, align 8
  %43 = trunc i64 %42 to i32
  call void @_ZN4i18n12phonenumbers11PhoneNumber27set_number_of_leading_zerosEi(ptr noundef nonnull align 8 dereferenceable(72) %41, i32 noundef %43)
  br label %44

44:                                               ; preds = %40, %37
  br label %45

45:                                               ; preds = %44, %11, %3
  ret void
}