; Function Attrs: mustprogress nounwind uwtable
define dso_local void @_ZNK4i18n12phonenumbers15PhoneNumberUtil36SetItalianLeadingZerosForPhoneNumberERKNSt7__cxx1112basic_stringIcSt11char_traitsIcESaIcEEEPNS0_11PhoneNumberE(ptr nocapture nonnull readnone align 8 %0, ptr noundef nonnull align 8 dereferenceable(32) %1, ptr nocapture noundef %2) local_unnamed_addr #9 align 2 {
  %4 = tail call noundef i64 @_ZNKSt7__cxx1112basic_stringIcSt11char_traitsIcESaIcEE6lengthEv(ptr noundef nonnull align 8 dereferenceable(32) %1) #26
  %5 = icmp ugt i64 %4, 1
  br i1 %5, label %6, label %.critedge.thread

6:                                                ; preds = %3
  %7 = tail call noundef nonnull align 1 dereferenceable(1) ptr @_ZNKSt7__cxx1112basic_stringIcSt11char_traitsIcESaIcEEixEm(ptr noundef nonnull align 8 dereferenceable(32) %1, i64 noundef 0) #26
  %8 = load i8, ptr %7, align 1
  %9 = icmp eq i8 %8, 48
  br i1 %9, label %10, label %.critedge.thread

10:                                               ; preds = %6
  %11 = getelementptr inbounds i8, ptr %2, i64 16
  %12 = load i32, ptr %11, align 4
  %13 = or i32 %12, 32
  store i32 %13, ptr %11, align 4
  %14 = getelementptr inbounds i8, ptr %2, i64 60
  store i8 1, ptr %14, align 4
  %15 = tail call noundef i64 @_ZNKSt7__cxx1112basic_stringIcSt11char_traitsIcESaIcEE6lengthEv(ptr noundef nonnull align 8 dereferenceable(32) %1) #26
  %16 = add i64 %15, -3
  %17 = icmp ult i64 %16, -2
  br i1 %17, label %.lr.ph, label %.critedge.thread

.lr.ph:                                           ; preds = %10, %21
  %.010 = phi i64 [ %22, %21 ], [ 1, %10 ]
  %18 = tail call noundef nonnull align 1 dereferenceable(1) ptr @_ZNKSt7__cxx1112basic_stringIcSt11char_traitsIcESaIcEEixEm(ptr noundef nonnull align 8 dereferenceable(32) %1, i64 noundef %.010) #26
  %19 = load i8, ptr %18, align 1
  %20 = icmp eq i8 %19, 48
  br i1 %20, label %21, label %.critedge

21:                                               ; preds = %.lr.ph
  %22 = add nuw i64 %.010, 1
  %23 = tail call noundef i64 @_ZNKSt7__cxx1112basic_stringIcSt11char_traitsIcESaIcEE6lengthEv(ptr noundef nonnull align 8 dereferenceable(32) %1) #26
  %24 = add i64 %23, -1
  %25 = icmp ult i64 %22, %24
  br i1 %25, label %.lr.ph, label %.critedge.thread15, !llvm.loop !325

.critedge:                                        ; preds = %.lr.ph
  %.not = icmp eq i64 %.010, 1
  br i1 %.not, label %.critedge.thread, label %.critedge.thread15

.critedge.thread15:                               ; preds = %21, %.critedge
  %.0.lcssa18 = phi i64 [ %.010, %.critedge ], [ %22, %21 ]
  %26 = trunc i64 %.0.lcssa18 to i32
  %27 = load i32, ptr %11, align 4
  %28 = or i32 %27, 128
  store i32 %28, ptr %11, align 4
  %29 = getelementptr inbounds i8, ptr %2, i64 68
  store i32 %26, ptr %29, align 4
  br label %.critedge.thread

.critedge.thread:                                 ; preds = %10, %.critedge, %.critedge.thread15, %6, %3
  ret void
}